Certificate:
    Data:
        Version: 3 (0x2)
        Serial Number:
            c6:3f:dc:84:9a:41:e1:2a:5a:22:c4:06:ec:8e:04:21
        Signature Algorithm: sha256WithRSAEncryption
        Issuer: CN=Easy-RSA CA
        Validity
            Not Before: Sep  3 10:05:46 2024 GMT
            Not After : Dec  7 10:05:46 2026 GMT
        Subject: CN=client1
        Subject Public Key Info:
            Public Key Algorithm: rsaEncryption
                Public-Key: (2048 bit)
                Modulus:
                    00:cc:8f:f0:a5:24:65:d3:4d:0c:69:80:3d:36:a9:
                    4b:bc:4d:26:b8:a2:3e:a0:8e:18:4e:03:1d:2a:ad:
                    6a:3c:57:9c:4f:a3:80:b7:01:9e:56:bd:c1:f4:8d:
                    67:0f:79:06:5e:9c:65:4f:e7:5e:08:a7:d2:48:06:
                    b1:bf:d2:be:59:db:4d:4f:6f:98:40:9e:77:06:37:
                    70:7f:72:c7:22:3c:0a:30:10:88:76:64:02:d0:51:
                    07:df:d2:2d:81:4a:68:31:79:9a:9c:4b:f4:2e:0a:
                    40:32:a5:98:3f:42:d4:eb:30:f7:95:9e:f4:fd:5a:
                    2b:26:69:b4:0a:72:f1:52:b5:f1:6e:fa:ce:a0:86:
                    f0:f7:5d:ad:ae:34:cb:dc:0d:e7:b5:3b:75:f2:c2:
                    be:b5:eb:5d:57:5f:7f:87:ae:29:a2:72:82:5b:d7:
                    a5:5b:8e:cb:96:a2:81:95:bd:0f:76:5b:be:45:e6:
                    78:9c:63:59:4d:0d:4e:89:2a:15:14:a4:62:d6:0f:
                    01:66:c6:b7:61:6d:9f:ae:e9:c8:f0:bc:b2:9a:5c:
                    36:0b:be:aa:d3:d4:81:d2:4e:ee:6f:c5:7b:90:7e:
                    0c:e7:a0:77:1a:c6:b4:16:01:b7:db:61:f7:44:af:
                    6b:1f:05:22:b9:e7:85:d1:78:db:c0:4a:07:72:b4:
                    5f:8f
                Exponent: 65537 (0x10001)
        X509v3 extensions:
            X509v3 Basic Constraints: 
                CA:FALSE
            X509v3 Subject Key Identifier: 
                7E:CF:85:AF:AF:98:64:80:3C:FA:D4:13:53:14:F1:DF:FD:2A:57:75
            X509v3 Authority Key Identifier: 
                keyid:26:FC:BE:8D:74:FB:33:F9:EA:F2:27:70:83:07:9B:F5:1E:76:2A:2C
                DirName:/CN=Easy-RSA CA
                serial:1E:26:AD:4B:C2:6E:61:64:56:40:DE:8E:E8:A4:96:F5:F0:A0:57:E6
            X509v3 Extended Key Usage: 
                TLS Web Client Authentication
            X509v3 Key Usage: 
                Digital Signature
    Signature Algorithm: sha256WithRSAEncryption
    Signature Value:
        58:e0:c2:63:dd:13:20:8c:be:4d:c9:0b:b1:9a:d4:21:57:50:
        d9:65:7a:47:c6:3f:8d:93:58:f8:06:60:36:f3:48:e8:4e:e8:
        50:05:27:86:b6:d0:3f:4e:40:3a:76:95:08:64:48:9b:76:f4:
        04:7d:e8:d3:d9:61:62:b6:61:5a:90:09:49:7b:38:5d:09:7f:
        d6:5c:44:e3:82:70:60:ec:9e:99:f6:e1:31:de:c0:ab:d2:69:
        1a:2b:ad:61:06:e8:7d:65:53:8a:d1:6b:89:e3:80:f3:f3:ad:
        1b:88:c8:20:09:03:3c:f2:e2:11:a2:31:22:c3:15:fb:de:0b:
        1e:5a:14:bd:62:60:ae:22:26:13:2d:98:81:41:89:c9:62:42:
        78:45:78:c1:94:e3:16:51:df:b3:bf:0e:11:fd:7e:8e:b8:5d:
        01:bf:7b:cf:45:5e:86:76:98:1e:8b:4e:ed:fe:e9:a2:2f:64:
        f8:3d:5c:ec:3b:4d:1d:fb:89:cb:2e:f1:a6:5d:ea:05:0a:86:
        bf:e4:32:bb:46:51:3a:ec:25:5f:d7:54:27:1d:ae:49:ba:25:
        ea:a5:58:5b:e5:8a:d6:df:de:6c:29:74:e5:de:28:97:0d:d1:
        f0:ba:69:5b:fa:42:73:2e:db:aa:95:8d:83:08:fa:b6:c7:2d:
        9b:e5:8d:70
-----BEGIN CERTIFICATE-----
MIIDVjCCAj6gAwIBAgIRAMY/3ISaQeEqWiLEBuyOBCEwDQYJKoZIhvcNAQELBQAw
FjEUMBIGA1UEAwwLRWFzeS1SU0EgQ0EwHhcNMjQwOTAzMTAwNTQ2WhcNMjYxMjA3
MTAwNTQ2WjASMRAwDgYDVQQDDAdjbGllbnQxMIIBIjANBgkqhkiG9w0BAQEFAAOC
AQ8AMIIBCgKCAQEAzI/wpSRl000MaYA9NqlLvE0muKI+oI4YTgMdKq1qPFecT6OA
twGeVr3B9I1nD3kGXpxlT+deCKfSSAaxv9K+WdtNT2+YQJ53Bjdwf3LHIjwKMBCI
dmQC0FEH39ItgUpoMXmanEv0LgpAMqWYP0LU6zD3lZ70/VorJmm0CnLxUrXxbvrO
oIbw912trjTL3A3ntTt18sK+tetdV19/h64ponKCW9elW47LlqKBlb0Pdlu+ReZ4
nGNZTQ1OiSoVFKRi1g8BZsa3YW2frunI8Lyymlw2C76q09SB0k7ub8V7kH4M56B3
Gsa0FgG322H3RK9rHwUiueeF0XjbwEoHcrRfjwIDAQABo4GiMIGfMAkGA1UdEwQC
MAAwHQYDVR0OBBYEFH7Pha+vmGSAPPrUE1MU8d/9Kld1MFEGA1UdIwRKMEiAFCb8
vo10+zP56vIncIMHm/UediosoRqkGDAWMRQwEgYDVQQDDAtFYXN5LVJTQSBDQYIU
HiatS8JuYWRWQN6O6KSW9fCgV+YwEwYDVR0lBAwwCgYIKwYBBQUHAwIwCwYDVR0P
BAQDAgeAMA0GCSqGSIb3DQEBCwUAA4IBAQBY4MJj3RMgjL5NyQuxmtQhV1DZZXpH
xj+Nk1j4BmA280joTuhQBSeGttA/TkA6dpUIZEibdvQEfejT2WFitmFakAlJezhd
CX/WXETjgnBg7J6Z9uEx3sCr0mkaK61hBuh9ZVOK0WuJ44Dz860biMggCQM88uIR
ojEiwxX73gseWhS9YmCuIiYTLZiBQYnJYkJ4RXjBlOMWUd+zvw4R/X6OuF0Bv3vP
RV6Gdpgei07t/umiL2T4PVzsO00d+4nLLvGmXeoFCoa/5DK7RlE67CVf11QnHa5J
uiXqpVhb5YrW395sKXTl3iiXDdHwumlb+kJzLtuqlY2DCPq2xy2b5Y1w
-----END CERTIFICATE-----
